target datalayout = "e-m:e-p270:32:32-p271:32:32-p272:64:64-i64:64-i128:128-f80:128-n8:16:32:64-S128"
target triple = "x86_64-pc-linux-gnu"

@stderr = external global ptr, align 8
@.str.9 = private unnamed_addr constant [64 x i8] c"libunwind: __unw_get_proc_name(cursor=%p, &buf=%p, bufLen=%lu)\0A\00", align 1
@_ZZ7logAPIsE7checked = internal global i8 0, align 1
@_ZZ7logAPIsE3log = internal global i8 0, align 1
@.str.15 = private unnamed_addr constant [21 x i8] c"LIBUNWIND_PRINT_APIS\00", align 1

; Function Attrs: mustprogress nounwind uwtable
define hidden zeroext i1 @logAPIs() #0 {
  %1 = load i8, ptr @_ZZ7logAPIsE7checked, align 1, !tbaa !19, !range !21, !noundef !22
  %2 = trunc i8 %1 to i1
  br i1 %2, label %7, label %3

3:                                                ; preds = %0
  %4 = call ptr @getenv(ptr noundef @.str.15) #9
  %5 = icmp ne ptr %4, null
  %6 = zext i1 %5 to i8
  store i8 %6, ptr @_ZZ7logAPIsE3log, align 1, !tbaa !19
  store i8 1, ptr @_ZZ7logAPIsE7checked, align 1, !tbaa !19
  br label %7

7:                                                ; preds = %3, %0
  %8 = load i8, ptr @_ZZ7logAPIsE3log, align 1, !tbaa !19, !range !21, !noundef !22
  %9 = trunc i8 %8 to i1
  ret i1 %9
}

; Function Attrs: mustprogress nounwind uwtable
define hidden i32 @__unw_get_proc_name(ptr noundef %0, ptr noundef %1, i64 noundef %2, ptr noundef %3) #0 {
  %5 = alloca i32, align 4
  %6 = alloca ptr, align 8
  %7 = alloca ptr, align 8
  %8 = alloca i64, align 8
  %9 = alloca ptr, align 8
  %10 = alloca ptr, align 8
  %11 = alloca i32, align 4
  store ptr %0, ptr %6, align 8, !tbaa !6
  store ptr %1, ptr %7, align 8, !tbaa !48
  store i64 %2, ptr %8, align 8, !tbaa !23
  store ptr %3, ptr %9, align 8, !tbaa !38
  br label %12

12:                                               ; preds = %4
  %13 = call zeroext i1 @logAPIs()
  br i1 %13, label %14, label %24

14:                                               ; preds = %12
  br label %15

15:                                               ; preds = %14
  %16 = load ptr, ptr @stderr, align 8, !tbaa !13
  %17 = load ptr, ptr %6, align 8, !tbaa !6
  %18 = load ptr, ptr %7, align 8, !tbaa !48
  %19 = load i64, ptr %8, align 8, !tbaa !23
  %20 = call i32 (ptr, ptr, ...) @fprintf(ptr noundef %16, ptr noundef @.str.9, ptr noundef %17, ptr noundef %18, i64 noundef %19) #9
  %21 = load ptr, ptr @stderr, align 8, !tbaa !13
  %22 = call i32 @fflush(ptr noundef %21)
  br label %23

23:                                               ; preds = %15
  br label %24

24:                                               ; preds = %23, %12
  br label %25

25:                                               ; preds = %24
  call void @llvm.lifetime.start.p0(i64 8, ptr %10) #9
  %26 = load ptr, ptr %6, align 8, !tbaa !6
  store ptr %26, ptr %10, align 8, !tbaa !15
  %27 = load ptr, ptr %10, align 8, !tbaa !15
  %28 = load ptr, ptr %7, align 8, !tbaa !48
  %29 = load i64, ptr %8, align 8, !tbaa !23
  %30 = load ptr, ptr %9, align 8, !tbaa !38
  %31 = load ptr, ptr %27, align 8, !tbaa !17
  %32 = getelementptr inbounds ptr, ptr %31, i64 12
  %33 = load ptr, ptr %32, align 8
  %34 = call noundef zeroext i1 %33(ptr noundef nonnull align 8 dereferenceable(8) %27, ptr noundef %28, i64 noundef %29, ptr noundef %30)
  br i1 %34, label %35, label %36

35:                                               ; preds = %25
  store i32 0, ptr %5, align 4
  store i32 1, ptr %11, align 4
  br label %37

36:                                               ; preds = %25
  store i32 -6540, ptr %5, align 4
  store i32 1, ptr %11, align 4
  br label %37

37:                                               ; preds = %36, %35
  call void @llvm.lifetime.end.p0(i64 8, ptr %10) #9
  %38 = load i32, ptr %5, align 4
  ret i32 %38
}