; Function Attrs: mustprogress nounwind uwtable
define hidden noundef range(i32 -6540, 1) i32 @__unw_get_proc_name(ptr noundef %0, ptr noundef %1, i64 noundef %2, ptr noundef %3) #0 {
  %.b1.i = load i1, ptr @_ZZ7logAPIsE7checked, align 1
  br i1 %.b1.i, label %._crit_edge.i, label %logAPIs.exit

._crit_edge.i:                                    ; preds = %4
  %.pre.i = load i8, ptr @_ZZ7logAPIsE3log, align 1, !tbaa !6, !range !10
  %5 = trunc nuw i8 %.pre.i to i1
  br i1 %5, label %9, label %14

logAPIs.exit:                                     ; preds = %4
  %6 = tail call ptr @getenv(ptr noundef nonnull @.str.15) #15
  %7 = icmp ne ptr %6, null
  %8 = zext i1 %7 to i8
  store i8 %8, ptr @_ZZ7logAPIsE3log, align 1, !tbaa !6
  store i1 true, ptr @_ZZ7logAPIsE7checked, align 1
  br i1 %7, label %9, label %14

9:                                                ; preds = %._crit_edge.i, %logAPIs.exit
  %10 = load ptr, ptr @stderr, align 8, !tbaa !11
  %11 = tail call i32 (ptr, ptr, ...) @fprintf(ptr noundef %10, ptr noundef nonnull @.str.9, ptr noundef %0, ptr noundef %1, i64 noundef %2) #16
  %12 = load ptr, ptr @stderr, align 8, !tbaa !11
  %13 = tail call i32 @fflush(ptr noundef %12)
  br label %14

14:                                               ; preds = %._crit_edge.i, %logAPIs.exit, %9
  %15 = load ptr, ptr %0, align 8, !tbaa !14
  %16 = getelementptr inbounds nuw i8, ptr %15, i64 96
  %17 = load ptr, ptr %16, align 8
  %18 = tail call noundef zeroext i1 %17(ptr noundef nonnull align 8 dereferenceable(8) %0, ptr noundef %1, i64 noundef %2, ptr noundef %3) #15
  %. = select i1 %18, i32 0, i32 -6540
  ret i32 %.
}